; Function Attrs: uwtable
define void @_ZTv0_n56_NK5arrow2io16FileOutputStream4TellEv(ptr noalias sret(%"class.arrow::Result.28") align 8 %agg.result, ptr nocapture noundef readonly %this) unnamed_addr #11 align 2 {
entry:
  %0 = load ptr, ptr %this, align 8
  %1 = getelementptr inbounds i8, ptr %0, i64 -56
  %2 = load i64, ptr %1, align 8
  %3 = getelementptr inbounds i8, ptr %this, i64 %2
  %impl_.i = getelementptr inbounds i8, ptr %3, i64 8
  %4 = load ptr, ptr %impl_.i, align 8, !noalias !121
  tail call void @_ZNK5arrow2io6OSFile4TellEv(ptr sret(%"class.arrow::Result.28") align 8 %agg.result, ptr noundef nonnull align 8 dereferenceable(65) %4)
  ret void
}